; Function Attrs: null_pointer_is_valid sspstrong uwtable
define internal fastcc void @dissect_gadu_gadu_dcc7_id_abort(ptr noundef %0, ptr %.8.val, ptr noundef %1) unnamed_addr #0 {
  tail call void @col_set_str(ptr noundef %.8.val, i32 noundef 25, ptr noundef nonnull @.str.301)
  %3 = load i32, ptr @hf_dcc_id, align 4
  %4 = tail call ptr @proto_tree_add_item(ptr noundef %1, i32 noundef %3, ptr noundef %0, i32 noundef 8, i32 noundef 8, i32 noundef 0)
  %5 = load i32, ptr @hf_dcc_uin_from, align 4
  %6 = tail call ptr @proto_tree_add_item(ptr noundef %1, i32 noundef %5, ptr noundef %0, i32 noundef 16, i32 noundef 4, i32 noundef -2147483648)
  %7 = load i32, ptr @hf_dcc_uin_to, align 4
  %8 = tail call ptr @proto_tree_add_item(ptr noundef %1, i32 noundef %7, ptr noundef %0, i32 noundef 20, i32 noundef 4, i32 noundef -2147483648)
  ret void
}